target datalayout = "e-m:e-p270:32:32-p271:32:32-p272:64:64-i64:64-i128:128-f80:128-n8:16:32:64-S128"
target triple = "x86_64-pc-linux-gnu"

%class.dtTileCache = type { i32, i32, ptr, ptr, ptr, i32, i32, %struct.dtTileCacheParams, ptr, ptr, ptr, ptr, ptr, [64 x %"struct.dtTileCache::ObstacleRequest"], i32, [64 x i32], i32 }
%struct.dtTileCacheParams = type { [3 x float], float, float, i32, i32, float, float, float, float, i32, i32 }
%"struct.dtTileCache::ObstacleRequest" = type { i32, i32 }
%struct.dtTileCacheLayerHeader = type { i32, i32, i32, i32, i32, [3 x float], [3 x float], i16, i16, i8, i8, i8, i8, i8, i8 }

; Function Attrs: mustprogress nounwind uwtable
define void @_ZNK11dtTileCache19calcTightTileBoundsEPK22dtTileCacheLayerHeaderPfS3_(ptr noundef nonnull align 8 dereferenceable(912) %0, ptr noundef %1, ptr noundef %2, ptr noundef %3) #2 align 2 {
  %5 = alloca ptr, align 8
  %6 = alloca ptr, align 8
  %7 = alloca ptr, align 8
  %8 = alloca ptr, align 8
  %9 = alloca float, align 4
  store ptr %0, ptr %5, align 8
  store ptr %1, ptr %6, align 8
  store ptr %2, ptr %7, align 8
  store ptr %3, ptr %8, align 8
  %10 = load ptr, ptr %5, align 8
  %11 = getelementptr inbounds %class.dtTileCache, ptr %10, i32 0, i32 7
  %12 = getelementptr inbounds %struct.dtTileCacheParams, ptr %11, i32 0, i32 1
  %13 = load float, ptr %12, align 4
  store float %13, ptr %9, align 4
  %14 = load ptr, ptr %6, align 8
  %15 = getelementptr inbounds %struct.dtTileCacheLayerHeader, ptr %14, i32 0, i32 5
  %16 = getelementptr inbounds [3 x float], ptr %15, i64 0, i64 0
  %17 = load float, ptr %16, align 4
  %18 = load ptr, ptr %6, align 8
  %19 = getelementptr inbounds %struct.dtTileCacheLayerHeader, ptr %18, i32 0, i32 11
  %20 = load i8, ptr %19, align 2
  %21 = zext i8 %20 to i32
  %22 = sitofp i32 %21 to float
  %23 = load float, ptr %9, align 4
  %24 = call float @llvm.fmuladd.f32(float %22, float %23, float %17)
  %25 = load ptr, ptr %7, align 8
  %26 = getelementptr inbounds float, ptr %25, i64 0
  store float %24, ptr %26, align 4
  %27 = load ptr, ptr %6, align 8
  %28 = getelementptr inbounds %struct.dtTileCacheLayerHeader, ptr %27, i32 0, i32 5
  %29 = getelementptr inbounds [3 x float], ptr %28, i64 0, i64 1
  %30 = load float, ptr %29, align 4
  %31 = load ptr, ptr %7, align 8
  %32 = getelementptr inbounds float, ptr %31, i64 1
  store float %30, ptr %32, align 4
  %33 = load ptr, ptr %6, align 8
  %34 = getelementptr inbounds %struct.dtTileCacheLayerHeader, ptr %33, i32 0, i32 5
  %35 = getelementptr inbounds [3 x float], ptr %34, i64 0, i64 2
  %36 = load float, ptr %35, align 4
  %37 = load ptr, ptr %6, align 8
  %38 = getelementptr inbounds %struct.dtTileCacheLayerHeader, ptr %37, i32 0, i32 13
  %39 = load i8, ptr %38, align 4
  %40 = zext i8 %39 to i32
  %41 = sitofp i32 %40 to float
  %42 = load float, ptr %9, align 4
  %43 = call float @llvm.fmuladd.f32(float %41, float %42, float %36)
  %44 = load ptr, ptr %7, align 8
  %45 = getelementptr inbounds float, ptr %44, i64 2
  store float %43, ptr %45, align 4
  %46 = load ptr, ptr %6, align 8
  %47 = getelementptr inbounds %struct.dtTileCacheLayerHeader, ptr %46, i32 0, i32 5
  %48 = getelementptr inbounds [3 x float], ptr %47, i64 0, i64 0
  %49 = load float, ptr %48, align 4
  %50 = load ptr, ptr %6, align 8
  %51 = getelementptr inbounds %struct.dtTileCacheLayerHeader, ptr %50, i32 0, i32 12
  %52 = load i8, ptr %51, align 1
  %53 = zext i8 %52 to i32
  %54 = add nsw i32 %53, 1
  %55 = sitofp i32 %54 to float
  %56 = load float, ptr %9, align 4
  %57 = call float @llvm.fmuladd.f32(float %55, float %56, float %49)
  %58 = load ptr, ptr %8, align 8
  %59 = getelementptr inbounds float, ptr %58, i64 0
  store float %57, ptr %59, align 4
  %60 = load ptr, ptr %6, align 8
  %61 = getelementptr inbounds %struct.dtTileCacheLayerHeader, ptr %60, i32 0, i32 6
  %62 = getelementptr inbounds [3 x float], ptr %61, i64 0, i64 1
  %63 = load float, ptr %62, align 4
  %64 = load ptr, ptr %8, align 8
  %65 = getelementptr inbounds float, ptr %64, i64 1
  store float %63, ptr %65, align 4
  %66 = load ptr, ptr %6, align 8
  %67 = getelementptr inbounds %struct.dtTileCacheLayerHeader, ptr %66, i32 0, i32 5
  %68 = getelementptr inbounds [3 x float], ptr %67, i64 0, i64 2
  %69 = load float, ptr %68, align 4
  %70 = load ptr, ptr %6, align 8
  %71 = getelementptr inbounds %struct.dtTileCacheLayerHeader, ptr %70, i32 0, i32 14
  %72 = load i8, ptr %71, align 1
  %73 = zext i8 %72 to i32
  %74 = add nsw i32 %73, 1
  %75 = sitofp i32 %74 to float
  %76 = load float, ptr %9, align 4
  %77 = call float @llvm.fmuladd.f32(float %75, float %76, float %69)
  %78 = load ptr, ptr %8, align 8
  %79 = getelementptr inbounds float, ptr %78, i64 2
  store float %77, ptr %79, align 4
  ret void
}