; Function Attrs: mustprogress nofree norecurse nosync nounwind willreturn memory(argmem: readwrite) uwtable
define void @_ZNK11dtTileCache19calcTightTileBoundsEPK22dtTileCacheLayerHeaderPfS3_(ptr noundef nonnull readonly align 8 captures(none) dereferenceable(912) %0, ptr noundef readonly captures(none) %1, ptr noundef writeonly captures(none) initializes((0, 12)) %2, ptr noundef writeonly captures(none) initializes((0, 12)) %3) local_unnamed_addr #19 align 2 {
  %5 = getelementptr inbounds nuw i8, ptr %0, i64 52
  %6 = load float, ptr %5, align 4
  %7 = getelementptr inbounds nuw i8, ptr %1, i64 20
  %8 = load float, ptr %7, align 4
  %9 = getelementptr inbounds nuw i8, ptr %1, i64 50
  %10 = load i8, ptr %9, align 2
  %11 = uitofp i8 %10 to float
  %12 = tail call float @llvm.fmuladd.f32(float %11, float %6, float %8)
  store float %12, ptr %2, align 4
  %13 = getelementptr inbounds nuw i8, ptr %1, i64 24
  %14 = load float, ptr %13, align 4
  %15 = getelementptr inbounds nuw i8, ptr %2, i64 4
  store float %14, ptr %15, align 4
  %16 = getelementptr inbounds nuw i8, ptr %1, i64 28
  %17 = load float, ptr %16, align 4
  %18 = getelementptr inbounds nuw i8, ptr %1, i64 52
  %19 = load i8, ptr %18, align 4
  %20 = uitofp i8 %19 to float
  %21 = tail call float @llvm.fmuladd.f32(float %20, float %6, float %17)
  %22 = getelementptr inbounds nuw i8, ptr %2, i64 8
  store float %21, ptr %22, align 4
  %23 = load float, ptr %7, align 4
  %24 = getelementptr inbounds nuw i8, ptr %1, i64 51
  %25 = load i8, ptr %24, align 1
  %26 = zext i8 %25 to i32
  %27 = add nuw nsw i32 %26, 1
  %28 = uitofp nneg i32 %27 to float
  %29 = tail call float @llvm.fmuladd.f32(float %28, float %6, float %23)
  store float %29, ptr %3, align 4
  %30 = getelementptr inbounds nuw i8, ptr %1, i64 36
  %31 = load float, ptr %30, align 4
  %32 = getelementptr inbounds nuw i8, ptr %3, i64 4
  store float %31, ptr %32, align 4
  %33 = load float, ptr %16, align 4
  %34 = getelementptr inbounds nuw i8, ptr %1, i64 53
  %35 = load i8, ptr %34, align 1
  %36 = zext i8 %35 to i32
  %37 = add nuw nsw i32 %36, 1
  %38 = uitofp nneg i32 %37 to float
  %39 = tail call float @llvm.fmuladd.f32(float %38, float %6, float %33)
  %40 = getelementptr inbounds nuw i8, ptr %3, i64 8
  store float %39, ptr %40, align 4
  ret void
}